target datalayout = "e-m:e-p270:32:32-p271:32:32-p272:64:64-i64:64-i128:128-f80:128-n8:16:32:64-S128"
target triple = "x86_64-pc-linux-gnu"

%struct.ssl_ctx_st = type { ptr, %union.crypto_mutex_st, i16, i16, ptr, ptr, ptr, ptr, ptr, ptr, i64, ptr, ptr, i32, i32, i64, ptr, ptr, ptr, i32, ptr, ptr, ptr, ptr, ptr, ptr, %struct.crypto_ex_data_st, ptr, ptr, ptr, ptr, i32, i32, i32, ptr, ptr, ptr, i32, i32, [32 x i8], ptr, ptr, ptr, ptr, i16, ptr, ptr, [16 x i8], [16 x i8], [16 x i8], ptr, ptr, ptr, ptr, i8, ptr, ptr, ptr, ptr, ptr, ptr, ptr, i32, ptr, i64, ptr, ptr, ptr, i64, ptr, i64, ptr, ptr, i8, ptr, i32 }
%union.crypto_mutex_st = type { double, [48 x i8] }
%struct.crypto_ex_data_st = type { ptr }
%struct.ssl_session_st = type { i32, i32, i32, i32, [48 x i8], i32, [32 x i8], i32, [32 x i8], ptr, ptr, ptr, i64, i64, i64, ptr, %struct.crypto_ex_data_st, ptr, ptr, ptr, ptr, i64, i64, ptr, i64, ptr, [32 x i8], [64 x i8], i32, i32, i8 }
%struct.ssl_st = type { i32, i16, i16, ptr, ptr, ptr, ptr, ptr, i32, i32, ptr, ptr, i32, i32, ptr, ptr, ptr, ptr, ptr, ptr, ptr, ptr, i32, i32, [32 x i8], ptr, ptr, ptr, ptr, ptr, ptr, ptr, i64, %struct.crypto_ex_data_st, ptr, i32, i32, i32, i32, i16, ptr, i32, i64, ptr, ptr, ptr, ptr, ptr, ptr, i32, i32, ptr, ptr, i8, i8, i32 }

; Function Attrs: nounwind uwtable
define hidden void @ssl_update_cache(ptr noundef %0, i32 noundef %1) #0 {
  %3 = alloca ptr, align 8
  %4 = alloca i32, align 4
  %5 = alloca ptr, align 8
  %6 = alloca i32, align 4
  %7 = alloca i32, align 4
  %8 = alloca i32, align 4
  store ptr %0, ptr %3, align 8, !tbaa !80
  store i32 %1, ptr %4, align 4, !tbaa !61
  call void @llvm.lifetime.start.p0(i64 8, ptr %5) #8
  %9 = load ptr, ptr %3, align 8, !tbaa !80
  %10 = getelementptr inbounds nuw %struct.ssl_st, ptr %9, i32 0, i32 44
  %11 = load ptr, ptr %10, align 8, !tbaa !109
  store ptr %11, ptr %5, align 8, !tbaa !11
  %12 = load ptr, ptr %3, align 8, !tbaa !80
  %13 = getelementptr inbounds nuw %struct.ssl_st, ptr %12, i32 0, i32 25
  %14 = load ptr, ptr %13, align 8, !tbaa !133
  %15 = getelementptr inbounds nuw %struct.ssl_session_st, ptr %14, i32 0, i32 5
  %16 = load i32, ptr %15, align 8, !tbaa !56
  %17 = icmp eq i32 %16, 0
  br i1 %17, label %26, label %18

18:                                               ; preds = %2
  %19 = load ptr, ptr %5, align 8, !tbaa !11
  %20 = getelementptr inbounds nuw %struct.ssl_ctx_st, ptr %19, i32 0, i32 14
  %21 = load i32, ptr %20, align 4, !tbaa !37
  %22 = load i32, ptr %4, align 4, !tbaa !61
  %23 = and i32 %21, %22
  %24 = load i32, ptr %4, align 4, !tbaa !61
  %25 = icmp ne i32 %23, %24
  br i1 %25, label %26, label %27

26:                                               ; preds = %18, %2
  store i32 1, ptr %6, align 4
  br label %127

27:                                               ; preds = %18
  call void @llvm.lifetime.start.p0(i64 4, ptr %7) #8
  %28 = load ptr, ptr %3, align 8, !tbaa !80
  %29 = getelementptr inbounds nuw %struct.ssl_st, ptr %28, i32 0, i32 54
  %30 = load i8, ptr %29, align 1
  %31 = lshr i8 %30, 1
  %32 = and i8 %31, 1
  %33 = zext i8 %32 to i32
  %34 = icmp ne i32 %33, 0
  br i1 %34, label %35, label %42

35:                                               ; preds = %27
  %36 = load ptr, ptr %5, align 8, !tbaa !11
  %37 = getelementptr inbounds nuw %struct.ssl_ctx_st, ptr %36, i32 0, i32 14
  %38 = load i32, ptr %37, align 4, !tbaa !37
  %39 = and i32 %38, 512
  %40 = icmp ne i32 %39, 0
  %41 = xor i1 %40, true
  br label %42

42:                                               ; preds = %35, %27
  %43 = phi i1 [ false, %27 ], [ %41, %35 ]
  %44 = zext i1 %43 to i32
  store i32 %44, ptr %7, align 4, !tbaa !61
  %45 = load ptr, ptr %3, align 8, !tbaa !80
  %46 = getelementptr inbounds nuw %struct.ssl_st, ptr %45, i32 0, i32 54
  %47 = load i8, ptr %46, align 1
  %48 = and i8 %47, 1
  %49 = zext i8 %48 to i32
  %50 = icmp ne i32 %49, 0
  br i1 %50, label %51, label %64

51:                                               ; preds = %42
  %52 = load ptr, ptr %3, align 8, !tbaa !80
  %53 = getelementptr inbounds nuw %struct.ssl_st, ptr %52, i32 0, i32 54
  %54 = load i8, ptr %53, align 1
  %55 = lshr i8 %54, 1
  %56 = and i8 %55, 1
  %57 = zext i8 %56 to i32
  %58 = icmp ne i32 %57, 0
  br i1 %58, label %94, label %59

59:                                               ; preds = %51
  %60 = load ptr, ptr %3, align 8, !tbaa !80
  %61 = getelementptr inbounds nuw %struct.ssl_st, ptr %60, i32 0, i32 41
  %62 = load i32, ptr %61, align 8, !tbaa !249
  %63 = icmp ne i32 %62, 0
  br i1 %63, label %64, label %94

64:                                               ; preds = %59, %42
  %65 = load i32, ptr %7, align 4, !tbaa !61
  %66 = icmp ne i32 %65, 0
  br i1 %66, label %67, label %73

67:                                               ; preds = %64
  %68 = load ptr, ptr %5, align 8, !tbaa !11
  %69 = load ptr, ptr %3, align 8, !tbaa !80
  %70 = getelementptr inbounds nuw %struct.ssl_st, ptr %69, i32 0, i32 25
  %71 = load ptr, ptr %70, align 8, !tbaa !133
  %72 = call i32 @SSL_CTX_add_session(ptr noundef %68, ptr noundef %71)
  br label %73

73:                                               ; preds = %67, %64
  %74 = load ptr, ptr %5, align 8, !tbaa !11
  %75 = getelementptr inbounds nuw %struct.ssl_ctx_st, ptr %74, i32 0, i32 16
  %76 = load ptr, ptr %75, align 8, !tbaa !250
  %77 = icmp ne ptr %76, null
  br i1 %77, label %78, label %93

78:                                               ; preds = %73
  %79 = load ptr, ptr %5, align 8, !tbaa !11
  %80 = getelementptr inbounds nuw %struct.ssl_ctx_st, ptr %79, i32 0, i32 16
  %81 = load ptr, ptr %80, align 8, !tbaa !250
  %82 = load ptr, ptr %3, align 8, !tbaa !80
  %83 = load ptr, ptr %3, align 8, !tbaa !80
  %84 = getelementptr inbounds nuw %struct.ssl_st, ptr %83, i32 0, i32 25
  %85 = load ptr, ptr %84, align 8, !tbaa !133
  %86 = call ptr @SSL_SESSION_up_ref(ptr noundef %85)
  %87 = call i32 %81(ptr noundef %82, ptr noundef %86)
  %88 = icmp ne i32 %87, 0
  br i1 %88, label %93, label %89

89:                                               ; preds = %78
  %90 = load ptr, ptr %3, align 8, !tbaa !80
  %91 = getelementptr inbounds nuw %struct.ssl_st, ptr %90, i32 0, i32 25
  %92 = load ptr, ptr %91, align 8, !tbaa !133
  call void @SSL_SESSION_free(ptr noundef %92)
  br label %93

93:                                               ; preds = %89, %78, %73
  br label %94

94:                                               ; preds = %93, %59, %51
  %95 = load i32, ptr %7, align 4, !tbaa !61
  %96 = icmp ne i32 %95, 0
  br i1 %96, label %97, label %126

97:                                               ; preds = %94
  %98 = load ptr, ptr %5, align 8, !tbaa !11
  %99 = getelementptr inbounds nuw %struct.ssl_ctx_st, ptr %98, i32 0, i32 14
  %100 = load i32, ptr %99, align 4, !tbaa !37
  %101 = and i32 %100, 128
  %102 = icmp ne i32 %101, 0
  br i1 %102, label %126, label %103

103:                                              ; preds = %97
  call void @llvm.lifetime.start.p0(i64 4, ptr %8) #8
  store i32 0, ptr %8, align 4, !tbaa !61
  %104 = load ptr, ptr %5, align 8, !tbaa !11
  %105 = getelementptr inbounds nuw %struct.ssl_ctx_st, ptr %104, i32 0, i32 1
  call void @CRYPTO_MUTEX_lock_write(ptr noundef %105)
  %106 = load ptr, ptr %5, align 8, !tbaa !11
  %107 = getelementptr inbounds nuw %struct.ssl_ctx_st, ptr %106, i32 0, i32 13
  %108 = load i32, ptr %107, align 8, !tbaa !251
  %109 = add nsw i32 %108, 1
  store i32 %109, ptr %107, align 8, !tbaa !251
  %110 = load ptr, ptr %5, align 8, !tbaa !11
  %111 = getelementptr inbounds nuw %struct.ssl_ctx_st, ptr %110, i32 0, i32 13
  %112 = load i32, ptr %111, align 8, !tbaa !251
  %113 = icmp sge i32 %112, 255
  br i1 %113, label %114, label %117

114:                                              ; preds = %103
  store i32 1, ptr %8, align 4, !tbaa !61
  %115 = load ptr, ptr %5, align 8, !tbaa !11
  %116 = getelementptr inbounds nuw %struct.ssl_ctx_st, ptr %115, i32 0, i32 13
  store i32 0, ptr %116, align 8, !tbaa !251
  br label %117

117:                                              ; preds = %114, %103
  %118 = load ptr, ptr %5, align 8, !tbaa !11
  %119 = getelementptr inbounds nuw %struct.ssl_ctx_st, ptr %118, i32 0, i32 1
  call void @CRYPTO_MUTEX_unlock(ptr noundef %119)
  %120 = load i32, ptr %8, align 4, !tbaa !61
  %121 = icmp ne i32 %120, 0
  br i1 %121, label %122, label %125

122:                                              ; preds = %117
  %123 = load ptr, ptr %5, align 8, !tbaa !11
  %124 = call i64 @time(ptr noundef null) #8
  call void @SSL_CTX_flush_sessions(ptr noundef %123, i64 noundef %124)
  br label %125

125:                                              ; preds = %122, %117
  call void @llvm.lifetime.end.p0(i64 4, ptr %8) #8
  br label %126

126:                                              ; preds = %125, %97, %94
  call void @llvm.lifetime.end.p0(i64 4, ptr %7) #8
  store i32 0, ptr %6, align 4
  br label %127

127:                                              ; preds = %126, %26
  call void @llvm.lifetime.end.p0(i64 8, ptr %5) #8
  %128 = load i32, ptr %6, align 4
  switch i32 %128, label %130 [
    i32 0, label %129
    i32 1, label %129
  ]

129:                                              ; preds = %127, %127
  ret void

130:                                              ; preds = %127
  unreachable
}