; Function Attrs: nounwind uwtable
define hidden void @ssl_update_cache(ptr noundef %0, i32 noundef %1) local_unnamed_addr #0 {
  %3 = getelementptr inbounds nuw i8, ptr %0, i64 320
  %4 = load ptr, ptr %3, align 8, !tbaa !98
  %5 = getelementptr inbounds nuw i8, ptr %0, i64 184
  %6 = load ptr, ptr %5, align 8, !tbaa !122
  %7 = getelementptr inbounds nuw i8, ptr %6, i64 64
  %8 = load i32, ptr %7, align 8, !tbaa !52
  %9 = icmp eq i32 %8, 0
  br i1 %9, label %.thread36, label %10

10:                                               ; preds = %2
  %11 = getelementptr inbounds nuw i8, ptr %4, i64 148
  %12 = load i32, ptr %11, align 4, !tbaa !33
  %13 = and i32 %12, %1
  %.not = icmp eq i32 %13, %1
  br i1 %.not, label %14, label %.thread36

14:                                               ; preds = %10
  %15 = getelementptr inbounds nuw i8, ptr %0, i64 385
  %16 = load i8, ptr %15, align 1
  %17 = and i8 %16, 2
  %.not27 = icmp ne i8 %17, 0
  %18 = and i32 %12, 512
  %.not28 = icmp eq i32 %18, 0
  %19 = and i1 %.not28, %.not27
  %20 = and i8 %16, 1
  %.not29 = icmp eq i8 %20, 0
  br i1 %.not29, label %25, label %21

21:                                               ; preds = %14
  br i1 %.not27, label %36, label %22

22:                                               ; preds = %21
  %23 = getelementptr inbounds nuw i8, ptr %0, i64 296
  %24 = load i32, ptr %23, align 8, !tbaa !224
  %.not31 = icmp eq i32 %24, 0
  br i1 %.not31, label %.thread36, label %.thread

25:                                               ; preds = %14
  br i1 %19, label %26, label %.thread

26:                                               ; preds = %25
  %27 = tail call i32 @SSL_CTX_add_session(ptr noundef nonnull %4, ptr noundef nonnull %6) #21
  br label %.thread

.thread:                                          ; preds = %22, %26, %25
  %28 = getelementptr inbounds nuw i8, ptr %4, i64 160
  %29 = load ptr, ptr %28, align 8, !tbaa !225
  %.not32 = icmp eq ptr %29, null
  br i1 %.not32, label %36, label %30

30:                                               ; preds = %.thread
  %31 = load ptr, ptr %5, align 8, !tbaa !122
  %32 = tail call ptr @SSL_SESSION_up_ref(ptr noundef %31) #21
  %33 = tail call i32 %29(ptr noundef nonnull %0, ptr noundef %32) #21
  %.not33 = icmp eq i32 %33, 0
  br i1 %.not33, label %34, label %36

34:                                               ; preds = %30
  %35 = load ptr, ptr %5, align 8, !tbaa !122
  tail call void @SSL_SESSION_free(ptr noundef %35) #21
  br label %36

36:                                               ; preds = %.thread, %30, %34, %21
  br i1 %19, label %37, label %.thread36

37:                                               ; preds = %36
  %38 = load i32, ptr %11, align 4, !tbaa !33
  %39 = and i32 %38, 128
  %.not34 = icmp eq i32 %39, 0
  br i1 %.not34, label %40, label %.thread36

40:                                               ; preds = %37
  %41 = getelementptr inbounds nuw i8, ptr %4, i64 8
  tail call void @CRYPTO_MUTEX_lock_write(ptr noundef nonnull %41) #21
  %42 = getelementptr inbounds nuw i8, ptr %4, i64 144
  %43 = load i32, ptr %42, align 8, !tbaa !226
  %44 = add nsw i32 %43, 1
  %45 = icmp slt i32 %43, 254
  %spec.select = select i1 %45, i32 %44, i32 0
  store i32 %spec.select, ptr %42, align 8, !tbaa !226
  tail call void @CRYPTO_MUTEX_unlock(ptr noundef nonnull %41) #21
  br i1 %45, label %.thread36, label %46

46:                                               ; preds = %40
  %47 = tail call i64 @time(ptr noundef null) #21
  tail call void @SSL_CTX_flush_sessions(ptr noundef nonnull %4, i64 noundef %47) #21
  br label %.thread36

.thread36:                                        ; preds = %22, %36, %37, %46, %40, %2, %10
  ret void
}